target datalayout = "e-m:e-p270:32:32-p271:32:32-p272:64:64-i64:64-i128:128-f80:128-n8:16:32:64-S128"
target triple = "x86_64-pc-linux-gnu"

%struct.b2World = type { %struct.b2ArenaAllocator, %struct.b2BroadPhase, %struct.b2ConstraintGraph, %struct.b2IdPool, %struct.b2BodyArray, %struct.b2IdPool, %struct.b2SolverSetArray, %struct.b2IdPool, %struct.b2JointArray, %struct.b2IdPool, %struct.b2ContactArray, %struct.b2IdPool, %struct.b2IslandArray, %struct.b2IdPool, %struct.b2IdPool, %struct.b2ShapeArray, %struct.b2ChainShapeArray, %struct.b2SensorArray, %struct.b2TaskContextArray, %struct.b2SensorTaskContextArray, %struct.b2BodyMoveEventArray, %struct.b2SensorBeginTouchEventArray, %struct.b2ContactBeginTouchEventArray, [2 x %struct.b2SensorEndTouchEventArray], [2 x %struct.b2ContactEndTouchEventArray], i32, %struct.b2ContactHitEventArray, %struct.b2BitSet, %struct.b2BitSet, %struct.b2BitSet, i64, i32, %struct.b2Vec2, float, float, float, float, float, float, float, float, ptr, ptr, i16, %struct.b2Profile, ptr, ptr, ptr, ptr, i32, ptr, ptr, ptr, ptr, ptr, float, i32, i32, i16, i8, i8, i8, i8, i8, i8 }
%struct.b2ArenaAllocator = type { ptr, i32, i32, i32, i32, %struct.b2ArenaEntryArray }
%struct.b2ArenaEntryArray = type { ptr, i32, i32 }
%struct.b2BroadPhase = type { [3 x %struct.b2DynamicTree], i32, %struct.b2HashSet, %struct.b2IntArray, ptr, ptr, i32, %struct.b2AtomicInt, %struct.b2HashSet }
%struct.b2DynamicTree = type { ptr, i32, i32, i32, i32, i32, ptr, ptr, ptr, ptr, i32 }
%struct.b2IntArray = type { ptr, i32, i32 }
%struct.b2AtomicInt = type { i32 }
%struct.b2HashSet = type { ptr, i32, i32 }
%struct.b2ConstraintGraph = type { [12 x %struct.b2GraphColor] }
%struct.b2GraphColor = type { %struct.b2BitSet, %struct.b2ContactSimArray, %struct.b2JointSimArray, %union.anon }
%struct.b2ContactSimArray = type { ptr, i32, i32 }
%struct.b2JointSimArray = type { ptr, i32, i32 }
%union.anon = type { ptr }
%struct.b2BodyArray = type { ptr, i32, i32 }
%struct.b2SolverSetArray = type { ptr, i32, i32 }
%struct.b2JointArray = type { ptr, i32, i32 }
%struct.b2ContactArray = type { ptr, i32, i32 }
%struct.b2IslandArray = type { ptr, i32, i32 }
%struct.b2IdPool = type { %struct.b2IntArray, i32 }
%struct.b2ShapeArray = type { ptr, i32, i32 }
%struct.b2ChainShapeArray = type { ptr, i32, i32 }
%struct.b2SensorArray = type { ptr, i32, i32 }
%struct.b2TaskContextArray = type { ptr, i32, i32 }
%struct.b2SensorTaskContextArray = type { ptr, i32, i32 }
%struct.b2BodyMoveEventArray = type { ptr, i32, i32 }
%struct.b2SensorBeginTouchEventArray = type { ptr, i32, i32 }
%struct.b2ContactBeginTouchEventArray = type { ptr, i32, i32 }
%struct.b2SensorEndTouchEventArray = type { ptr, i32, i32 }
%struct.b2ContactEndTouchEventArray = type { ptr, i32, i32 }
%struct.b2ContactHitEventArray = type { ptr, i32, i32 }
%struct.b2BitSet = type { ptr, i32, i32 }
%struct.b2Vec2 = type { float, float }
%struct.b2Profile = type { float, float, float, float, float, float, float, float, float, float, float, float, float, float, float, float, float, float, float, float, float, float }
%struct.b2WorldId = type { i16, i16 }
%struct.b2ShapeId = type { i32, i16, i16 }
%struct.b2TreeStats = type { i32, i32 }
%struct.b2QueryFilter = type { i64, i64 }
%struct.b2RayCastInput = type { %struct.b2Vec2, %struct.b2Vec2, float }
%struct.WorldRayCastContext = type { ptr, ptr, %struct.b2QueryFilter, float, ptr }
%struct.b2RayResult = type { %struct.b2ShapeId, %struct.b2Vec2, %struct.b2Vec2, float, i32, i32, i8 }

@b2_worlds = hidden global [128 x %struct.b2World] zeroinitializer, align 16

; Function Attrs: nounwind uwtable
define hidden ptr @b2GetWorldFromId(i32 %0) #0 {
  %2 = alloca %struct.b2WorldId, align 2
  %3 = alloca ptr, align 8
  store i32 %0, ptr %2, align 2
  call void @llvm.lifetime.start.p0(i64 8, ptr %3) #10
  %4 = getelementptr inbounds nuw %struct.b2WorldId, ptr %2, i32 0, i32 0
  %5 = load i16, ptr %4, align 2, !tbaa !44
  %6 = zext i16 %5 to i32
  %7 = sub nsw i32 %6, 1
  %8 = sext i32 %7 to i64
  %9 = getelementptr inbounds %struct.b2World, ptr @b2_worlds, i64 %8
  store ptr %9, ptr %3, align 8, !tbaa !47
  %10 = load ptr, ptr %3, align 8, !tbaa !47
  call void @llvm.lifetime.end.p0(i64 8, ptr %3) #10
  ret ptr %10
}

; Function Attrs: nounwind uwtable
define void @b2World_CastRayClosest(ptr dead_on_unwind noalias writable sret(%struct.b2RayResult) align 4 %0, i32 %1, <2 x float> %2, <2 x float> %3, i64 %4, i64 %5) #6 {
  %7 = alloca %struct.b2WorldId, align 2
  %8 = alloca %struct.b2Vec2, align 4
  %9 = alloca %struct.b2Vec2, align 4
  %10 = alloca %struct.b2QueryFilter, align 8
  %11 = alloca ptr, align 8
  %12 = alloca i32, align 4
  %13 = alloca %struct.b2RayCastInput, align 4
  %14 = alloca %struct.WorldRayCastContext, align 8
  %15 = alloca i32, align 4
  %16 = alloca %struct.b2TreeStats, align 4
  store i32 %1, ptr %7, align 2
  store <2 x float> %2, ptr %8, align 4
  store <2 x float> %3, ptr %9, align 4
  %17 = getelementptr inbounds nuw { i64, i64 }, ptr %10, i32 0, i32 0
  store i64 %4, ptr %17, align 8
  %18 = getelementptr inbounds nuw { i64, i64 }, ptr %10, i32 0, i32 1
  store i64 %5, ptr %18, align 8
  call void @llvm.memset.p0.i64(ptr align 4 %0, i8 0, i64 40, i1 false)
  call void @llvm.lifetime.start.p0(i64 8, ptr %11) #10
  %19 = load i32, ptr %7, align 2
  %20 = call ptr @b2GetWorldFromId(i32 %19)
  store ptr %20, ptr %11, align 8, !tbaa !47
  %21 = load ptr, ptr %11, align 8, !tbaa !47
  %22 = getelementptr inbounds nuw %struct.b2World, ptr %21, i32 0, i32 60
  %23 = load i8, ptr %22, align 1, !tbaa !49, !range !90, !noundef !91
  %24 = trunc i8 %23 to i1
  br i1 %24, label %25, label %26

25:                                               ; preds = %6
  store i32 1, ptr %12, align 4
  br label %80

26:                                               ; preds = %6
  call void @llvm.lifetime.start.p0(i64 20, ptr %13) #10
  %27 = getelementptr inbounds nuw %struct.b2RayCastInput, ptr %13, i32 0, i32 0
  call void @llvm.memcpy.p0.p0.i64(ptr align 4 %27, ptr align 4 %8, i64 8, i1 false), !tbaa.struct !162
  %28 = getelementptr inbounds nuw %struct.b2RayCastInput, ptr %13, i32 0, i32 1
  call void @llvm.memcpy.p0.p0.i64(ptr align 4 %28, ptr align 4 %9, i64 8, i1 false), !tbaa.struct !162
  %29 = getelementptr inbounds nuw %struct.b2RayCastInput, ptr %13, i32 0, i32 2
  store float 1.000000e+00, ptr %29, align 4, !tbaa !535
  call void @llvm.lifetime.start.p0(i64 48, ptr %14) #10
  %30 = getelementptr inbounds nuw %struct.WorldRayCastContext, ptr %14, i32 0, i32 0
  %31 = load ptr, ptr %11, align 8, !tbaa !47
  store ptr %31, ptr %30, align 8, !tbaa !537
  %32 = getelementptr inbounds nuw %struct.WorldRayCastContext, ptr %14, i32 0, i32 1
  store ptr @b2RayCastClosestFcn, ptr %32, align 8, !tbaa !539
  %33 = getelementptr inbounds nuw %struct.WorldRayCastContext, ptr %14, i32 0, i32 2
  call void @llvm.memcpy.p0.p0.i64(ptr align 8 %33, ptr align 8 %10, i64 16, i1 false), !tbaa.struct !506
  %34 = getelementptr inbounds nuw %struct.WorldRayCastContext, ptr %14, i32 0, i32 3
  store float 1.000000e+00, ptr %34, align 8, !tbaa !540
  %35 = getelementptr i8, ptr %14, i64 36
  call void @llvm.memset.p0.i64(ptr align 4 %35, i8 0, i64 4, i1 false)
  %36 = getelementptr inbounds nuw %struct.WorldRayCastContext, ptr %14, i32 0, i32 4
  store ptr %0, ptr %36, align 8, !tbaa !541
  call void @llvm.lifetime.start.p0(i64 4, ptr %15) #10
  store i32 0, ptr %15, align 4, !tbaa !3
  br label %37

37:                                               ; preds = %73, %26
  %38 = load i32, ptr %15, align 4, !tbaa !3
  %39 = icmp slt i32 %38, 3
  br i1 %39, label %41, label %40

40:                                               ; preds = %37
  store i32 2, ptr %12, align 4
  br label %76

41:                                               ; preds = %37
  call void @llvm.lifetime.start.p0(i64 8, ptr %16) #10
  %42 = load ptr, ptr %11, align 8, !tbaa !47
  %43 = getelementptr inbounds nuw %struct.b2World, ptr %42, i32 0, i32 1
  %44 = getelementptr inbounds nuw %struct.b2BroadPhase, ptr %43, i32 0, i32 0
  %45 = getelementptr inbounds [3 x %struct.b2DynamicTree], ptr %44, i64 0, i64 0
  %46 = load i32, ptr %15, align 4, !tbaa !3
  %47 = sext i32 %46 to i64
  %48 = getelementptr inbounds %struct.b2DynamicTree, ptr %45, i64 %47
  %49 = getelementptr inbounds nuw %struct.b2QueryFilter, ptr %10, i32 0, i32 1
  %50 = load i64, ptr %49, align 8, !tbaa !508
  %51 = call i64 @b2DynamicTree_RayCast(ptr noundef %48, ptr noundef %13, i64 noundef %50, ptr noundef @RayCastCallback, ptr noundef %14)
  store i64 %51, ptr %16, align 4
  %52 = getelementptr inbounds nuw %struct.b2TreeStats, ptr %16, i32 0, i32 0
  %53 = load i32, ptr %52, align 4, !tbaa !509
  %54 = getelementptr inbounds nuw %struct.b2RayResult, ptr %0, i32 0, i32 4
  %55 = load i32, ptr %54, align 4, !tbaa !550
  %56 = add nsw i32 %55, %53
  store i32 %56, ptr %54, align 4, !tbaa !550
  %57 = getelementptr inbounds nuw %struct.b2TreeStats, ptr %16, i32 0, i32 1
  %58 = load i32, ptr %57, align 4, !tbaa !511
  %59 = getelementptr inbounds nuw %struct.b2RayResult, ptr %0, i32 0, i32 5
  %60 = load i32, ptr %59, align 4, !tbaa !552
  %61 = add nsw i32 %60, %58
  store i32 %61, ptr %59, align 4, !tbaa !552
  %62 = getelementptr inbounds nuw %struct.WorldRayCastContext, ptr %14, i32 0, i32 3
  %63 = load float, ptr %62, align 8, !tbaa !540
  %64 = fcmp oeq float %63, 0.000000e+00
  br i1 %64, label %65, label %66

65:                                               ; preds = %41
  store i32 1, ptr %12, align 4
  br label %70

66:                                               ; preds = %41
  %67 = getelementptr inbounds nuw %struct.WorldRayCastContext, ptr %14, i32 0, i32 3
  %68 = load float, ptr %67, align 8, !tbaa !540
  %69 = getelementptr inbounds nuw %struct.b2RayCastInput, ptr %13, i32 0, i32 2
  store float %68, ptr %69, align 4, !tbaa !535
  store i32 0, ptr %12, align 4
  br label %70

70:                                               ; preds = %66, %65
  call void @llvm.lifetime.end.p0(i64 8, ptr %16) #10
  %71 = load i32, ptr %12, align 4
  switch i32 %71, label %76 [
    i32 0, label %72
  ]

72:                                               ; preds = %70
  br label %73

73:                                               ; preds = %72
  %74 = load i32, ptr %15, align 4, !tbaa !3
  %75 = add nsw i32 %74, 1
  store i32 %75, ptr %15, align 4, !tbaa !3
  br label %37, !llvm.loop !553

76:                                               ; preds = %70, %40
  call void @llvm.lifetime.end.p0(i64 4, ptr %15) #10
  %77 = load i32, ptr %12, align 4
  switch i32 %77, label %79 [
    i32 2, label %78
  ]

78:                                               ; preds = %76
  store i32 1, ptr %12, align 4
  br label %79

79:                                               ; preds = %78, %76
  call void @llvm.lifetime.end.p0(i64 48, ptr %14) #10
  call void @llvm.lifetime.end.p0(i64 20, ptr %13) #10
  br label %80

80:                                               ; preds = %79, %25
  call void @llvm.lifetime.end.p0(i64 8, ptr %11) #10
  ret void
}