; Function Attrs: nounwind uwtable
define void @b2World_CastRayClosest(ptr dead_on_unwind noalias writable sret(%struct.b2RayResult) align 4 initializes((0, 40)) %0, i32 %1, <2 x float> %2, <2 x float> %3, i64 %4, i64 %5) local_unnamed_addr #8 {
  %7 = alloca %struct.b2RayCastInput, align 8
  %8 = alloca %struct.WorldRayCastContext, align 8
  tail call void @llvm.memset.p0.i64(ptr noundef nonnull align 4 dereferenceable(40) %0, i8 0, i64 40, i1 false)
  %9 = and i32 %1, 65535
  %10 = zext nneg i32 %9 to i64
  %11 = getelementptr %struct.b2World, ptr @b2_worlds, i64 %10
  %12 = getelementptr i8, ptr %11, i64 -9
  %13 = load i8, ptr %12, align 1, !tbaa !35, !range !77, !noundef !78
  %14 = trunc nuw i8 %13 to i1
  br i1 %14, label %37, label %15

15:                                               ; preds = %6
  %16 = getelementptr i8, ptr %11, i64 -1792
  call void @llvm.lifetime.start.p0(i64 20, ptr nonnull %7) #22
  store <2 x float> %2, ptr %7, align 8
  %17 = getelementptr inbounds nuw i8, ptr %7, i64 8
  store <2 x float> %3, ptr %17, align 8
  %18 = getelementptr inbounds nuw i8, ptr %7, i64 16
  store float 1.000000e+00, ptr %18, align 8, !tbaa !434
  call void @llvm.lifetime.start.p0(i64 48, ptr nonnull %8) #22
  store ptr %16, ptr %8, align 8, !tbaa !436
  %19 = getelementptr inbounds nuw i8, ptr %8, i64 8
  store ptr @b2RayCastClosestFcn, ptr %19, align 8, !tbaa !438
  %20 = getelementptr inbounds nuw i8, ptr %8, i64 16
  store i64 %4, ptr %20, align 8, !tbaa !227
  %.sroa.2.0..sroa_idx = getelementptr inbounds nuw i8, ptr %8, i64 24
  store i64 %5, ptr %.sroa.2.0..sroa_idx, align 8, !tbaa !227
  %21 = getelementptr inbounds nuw i8, ptr %8, i64 32
  store float 1.000000e+00, ptr %21, align 8, !tbaa !439
  %22 = getelementptr inbounds nuw i8, ptr %8, i64 36
  store i32 0, ptr %22, align 4
  %23 = getelementptr inbounds nuw i8, ptr %8, i64 40
  store ptr %0, ptr %23, align 8, !tbaa !440
  %24 = getelementptr i8, ptr %11, i64 -1752
  %25 = getelementptr inbounds nuw i8, ptr %0, i64 28
  %26 = getelementptr inbounds nuw i8, ptr %0, i64 32
  br label %27

27:                                               ; preds = %15, %36
  %indvars.iv = phi i64 [ 0, %15 ], [ %indvars.iv.next, %36 ]
  %28 = getelementptr inbounds nuw %struct.b2DynamicTree, ptr %24, i64 %indvars.iv
  %29 = call i64 @b2DynamicTree_RayCast(ptr noundef nonnull %28, ptr noundef nonnull %7, i64 noundef %5, ptr noundef nonnull @RayCastCallback, ptr noundef nonnull %8) #22
  %.sroa.0.0.extract.trunc = trunc i64 %29 to i32
  %.sroa.4.0.extract.shift = lshr i64 %29, 32
  %.sroa.4.0.extract.trunc = trunc nuw i64 %.sroa.4.0.extract.shift to i32
  %30 = load i32, ptr %25, align 4, !tbaa !445
  %31 = add nsw i32 %30, %.sroa.0.0.extract.trunc
  store i32 %31, ptr %25, align 4, !tbaa !445
  %32 = load i32, ptr %26, align 4, !tbaa !448
  %33 = add nsw i32 %32, %.sroa.4.0.extract.trunc
  store i32 %33, ptr %26, align 4, !tbaa !448
  %34 = load float, ptr %21, align 8, !tbaa !439
  %35 = fcmp une float %34, 0.000000e+00
  br i1 %35, label %36, label %.critedge

36:                                               ; preds = %27
  store float %34, ptr %18, align 8, !tbaa !434
  %indvars.iv.next = add nuw nsw i64 %indvars.iv, 1
  %exitcond.not = icmp eq i64 %indvars.iv.next, 3
  br i1 %exitcond.not, label %.critedge, label %27, !llvm.loop !449

.critedge:                                        ; preds = %27, %36
  call void @llvm.lifetime.end.p0(i64 48, ptr nonnull %8) #22
  call void @llvm.lifetime.end.p0(i64 20, ptr nonnull %7) #22
  br label %37

37:                                               ; preds = %6, %.critedge
  ret void
}